; Function Attrs: mustprogress nofree norecurse nosync nounwind willreturn memory(readwrite, argmem: write, inaccessiblemem: none) uwtable
define noundef ptr @_ZN2cv13redirectErrorEPFiiPKcS1_S1_iPvES2_PS2_(ptr noundef %0, ptr noundef %1, ptr noundef writeonly %2) local_unnamed_addr #26 {
  %.not = icmp eq ptr %2, null
  br i1 %.not, label %6, label %4

4:                                                ; preds = %3
  %5 = load ptr, ptr @_ZN2cvL23customErrorCallbackDataE, align 8, !tbaa !115
  store ptr %5, ptr %2, align 8, !tbaa !115
  br label %6

6:                                                ; preds = %4, %3
  %7 = load ptr, ptr @_ZN2cvL19customErrorCallbackE, align 8, !tbaa !115
  store ptr %0, ptr @_ZN2cvL19customErrorCallbackE, align 8, !tbaa !115
  store ptr %1, ptr @_ZN2cvL23customErrorCallbackDataE, align 8, !tbaa !115
  ret ptr %7
}